(dp1
S'subject=Unknown'
p2
(lp3
(iKnowledge
Relation
p4
(dp5
S'arg1'
p6
Vme
p7
sS'arg2'
p8
Vpeople
p9
sS'conf'
p10
F0.11883100076262304
sS'rel'
p11
Vdo i like to meet
p12
sba(iKnowledge
Relation
p13
(dp14
g6
Vi
sg8
Vwoman
p15
sg10
F0.62900394873963417
sg11
S'is'
p16
sba(iKnowledge
Relation
p17
(dp18
g6
Vit
p19
sg8
Vname
p20
sg10
F0.66092674118645933
sg11
S'is'
p21
sbasS'Bingbing'
p22
(lp23
(iKnowledge
Relation
p24
(dp25
g6
Vmy research topic
p26
sg8
Vrobotics
p27
sg10
F0.89063917955764182
sg11
S'is'
p28
sbasS'Juzheng'
p29
(lp30
(iKnowledge
Relation
p31
(dp32
g6
Vit
p33
sg8
Vname
p34
sg10
F0.66092674118645933
sg11
S'is'
p35
sba(iKnowledge
Relation
p36
(dp37
g6
Vmy research topic
p38
sg8
Vvirtual human
p39
sg10
F0.89063917955764182
sg11
g35
sbasS'subject=Rubha'
p40
(lp41
(iKnowledge
Relation
p42
(dp43
g6
Vmy name
p44
sg8
Vjames
p45
sg10
F0.89063917955764182
sg11
S'is'
p46
sba(iKnowledge
Relation
p47
(dp48
g6
Vit
p49
sg8
Vsingapore
p50
sg10
F0.30303209398356784
sg11
Vis sunny in
p51
sba(iKnowledge
Relation
p52
(dp53
g6
Vmy research topic
p54
sg8
Vsocial robot
p55
sg10
F0.89063917955764182
sg11
S'is'
p56
sba(iKnowledge
Relation
p57
(dp58
g6
Vmy hobby
p59
sg8
Vmovie
p60
sg10
F0.89731035770893774
sg11
Vis watching
p61
sbasS'Anran'
p62
(lp63
(iKnowledge
Relation
p64
(dp65
g6
Vi
sg8
Vpeach
p66
sg10
F0.12301566672169841
sg11
g28
sba(iKnowledge
Relation
p67
(dp68
g6
Vmy research topic
p69
sg8
Vcomputer vision
p70
sg10
F0.89063917955764182
sg11
g28
sbasS'Nadia'
p71
(lp72
(iKnowledge
Relation
p73
(dp74
g6
Vi
sg8
Vprofessor
p75
sg10
F0.45502871888398294
sg11
S'is'
p76
sba(iKnowledge
Relation
p77
(dp78
g6
Vi
sg8
Vwoman
p79
sg10
F0.62900394873963417
sg11
g76
sba(iKnowledge
Relation
p80
(dp81
g6
Vmy research topic
p82
sg8
Vvirtual woman
p83
sg10
F0.89063917955764182
sg11
g76
sba(iKnowledge
Relation
p84
(dp85
g6
Vmy research topic
p86
sg8
Vrobotics
p87
sg10
F0.66969813420744717
sg11
g76
sba(iKnowledge
Relation
p88
(dp89
g6
Vmy hobby
p90
sg8
Vresearch
p91
sg10
F0.69744190315971522
sg11
Vis to make
p92
sba(iKnowledge
Relation
p93
(dp94
g6
Vit
p95
sg8
Vprivate question
p96
sg10
F0.66092674118645933
sg11
g76
sba(iKnowledge
Relation
p97
(dp98
g6
Vyou
p99
sg8
Vrobot
p100
sg10
F0.6443235001832065
sg11
g76
sba(iKnowledge
Relation
p101
(dp102
g6
Vyou
p103
sg8
Vvirtual woman
p104
sg10
F0.62900394873963417
sg11
g76
sba(iKnowledge
Relation
p105
(dp106
g6
Vmy research topic
p107
sg8
Vcomputer graphic
p108
sg10
F0.89063917955764182
sg11
S'is'
p109
sba(iKnowledge
Relation
p110
(dp111
g6
Vi
sg8
Vcanadian
p112
sg10
F0.059671343555561605
sg11
Vknow
p113
sba(iKnowledge
Relation
p114
(dp115
g6
Vshopping
p116
sg8
Vbook
p117
sg10
F0.88329802480515951
sg11
Vwith
p118
sba(iKnowledge
Relation
p119
(dp120
g6
Vi
sg8
Vsuite
p121
sg10
F0.62900394873963417
sg11
S'is'
p122
sba(iKnowledge
Relation
p123
(dp124
g6
Vmy current work
p125
sg8
Vresearcher
p126
sg10
F0.89063917955764182
sg11
S'is'
p127
sba(iKnowledge
Relation
p128
(dp129
g6
Vmy research topic
p130
sg8
Vcomputer animation
p131
sg10
F0.89063917955764182
sg11
g127
sba(iKnowledge
Relation
p132
(dp133
g6
Vmy favorite book
p134
sg8
Vzola
p135
sg10
F0.93422192156152128
sg11
Vis book from
p136
sba(iKnowledge
Relation
p137
(dp138
g6
Vi don
p139
sg8
Vmoney
p140
sg10
F0.84947392567944258
sg11
Vhave
p141
sba(iKnowledge
Relation
p142
(dp143
g6
Vmy favorite holiday
p144
sg8
Vmountain
p145
sg10
F0.89063917955764182
sg11
g127
sbasS'Test'
p146
(lp147
(iKnowledge
Relation
p148
(dp149
g6
Vi
sg8
Vresearcher
p150
sg10
F0.42743452243073837
sg11
S'is'
p151
sba(iKnowledge
Relation
p152
(dp153
g6
Vmy research topic
p154
sg8
Vvirtual human
p155
sg10
F0.89063917955764182
sg11
g151
sba(iKnowledge
Relation
p156
(dp157
g6
Vmy nationality
p158
sg8
Vpanty
p159
sg10
F0.89063917955764182
sg11
S'is'
p160
sba(iKnowledge
Relation
p161
(dp162
g6
Vmy hobby
p163
sg8
Vkung fu
p164
sg10
F0.89063917955764182
sg11
g160
sba(iKnowledge
Relation
p165
(dp166
g6
Vmy favorite movie star
p167
sg8
Vtom cruise
p168
sg10
F0.89063917955764182
sg11
S'is'
p169
sba(iKnowledge
Relation
p170
(dp171
g6
Vi
sg8
Vyour lab
p172
sg10
F0.95109103635877734
sg11
Vis to
p173
sba(iKnowledge
Relation
p174
(dp175
g6
Vi
sg8
Vprofessor
p176
sg10
F0.62900394873963417
sg11
S'is'
p177
sba(iKnowledge
Relation
p178
(dp179
g6
Vmy research topic
p180
sg8
Vcomputer science
p181
sg10
F0.89063917955764182
sg11
g177
sba(iKnowledge
Relation
p182
(dp183
g6
Vmy research topic
p184
sg8
Vepisodic memory
p185
sg10
F0.89063917955764182
sg11
S'is'
p186
sba(iKnowledge
Relation
p187
(dp188
g6
Vmy favorite book
p189
sg8
Vquestion
p190
sg10
F0.71712869713814087
sg11
Vis don keep asking
p191
sba(iKnowledge
Relation
p192
(dp193
g6
Vmy frequently travel tool
p194
sg8
Vtravel
p195
sg10
F0.79463351811961125
sg11
Vis i
p196
sba(iKnowledge
Relation
p197
(dp198
g6
Vi
sg8
Vsingapore
p199
sg10
F0.84373095905327622
sg11
Vlive in
p200
sba(iKnowledge
Relation
p201
(dp202
g6
Vsingapore
p203
sg8
Vmarina bay
p204
sg10
F0.68373234955723117
sg11
S'is'
p205
sba(iKnowledge
Relation
p206
(dp207
g6
Vmy hobby
p208
sg8
Vbook
p209
sg10
F0.89731035770893774
sg11
Vis reading
p210
sba(iKnowledge
Relation
p211
(dp212
g6
Vmy favorite holiday
p213
sg8
Vspring festival
p214
sg10
F0.89063917955764182
sg11
S'is'
p215
sba(iKnowledge
Relation
p216
(dp217
g6
Vmy hobby
p218
sg8
Vplay basketball
p219
sg10
F0.89063917955764182
sg11
S'is'
p220
sba(iKnowledge
Relation
p221
(dp222
g6
Vit
p223
sg8
Vchinese guy
p224
sg10
F0.4713704466390215
sg11
Vis to meet
p225
sba(iKnowledge
Relation
p226
(dp227
g6
Vmy favorite sport
p228
sg8
Vplay basketball
p229
sg10
F0.89063917955764182
sg11
S'is'
p230
sba(iKnowledge
Relation
p231
(dp232
g6
Vbasketball
p233
sg8
Vgame
p234
sg10
F0.89063917955764182
sg11
g230
sba(iKnowledge
Relation
p235
(dp236
g6
Vepisodic memory store
p237
sg8
Vexperience
p238
sg10
F0.87629531383285486
sg11
Vyour
p239
sba(iKnowledge
Relation
p240
(dp241
g6
Vi
sg8
Vsingapre
p242
sg10
F0.63412466925403566
sg11
Vis in
p243
sba(iKnowledge
Relation
p244
(dp245
g6
Vi
sg8
Vresearch
p246
sg10
F0.92540219250169331
sg11
Vis in doing
p247
sba(iKnowledge
Relation
p248
(dp249
g6
Vit
p250
sg8
Vprivate question
p251
sg10
F0.66092674118645933
sg11
S'is'
p252
sba(iKnowledge
Relation
p253
(dp254
g6
Vi
sg8
Vbasketball yesterday
p255
sg10
F0.91791884627936415
sg11
Vplayed
p256
sba(iKnowledge
Relation
p257
(dp258
g6
Vmemory store
p259
sg8
Vexperience
p260
sg10
F0.87629531383285486
sg11
Vyour
p261
sbasS'Linda'
p262
(lp263
(iKnowledge
Relation
p264
(dp265
g6
Vi
sg8
Vvisit professor
p266
sg10
F0.55769128766880849
sg11
S'is'
p267
sba(iKnowledge
Relation
p268
(dp269
g6
Vmy research topic
p270
sg8
Vnatural lantuage processing
p271
sg10
F0.89063917955764182
sg11
g267
sba(iKnowledge
Relation
p272
(dp273
g6
Vmy favorite movie star
p274
sg8
Vsophie marceau
p275
sg10
F0.89063917955764182
sg11
g267
sba(iKnowledge
Relation
p276
(dp277
g6
Vit
p278
sg8
Vstory
p279
sg10
F0.13900801691790632
sg11
g267
sba(iKnowledge
Relation
p280
(dp281
g6
Vmy favorite artist
p282
sg8
Vsophie marceau
p283
sg10
F0.89063917955764182
sg11
g267
sba(iKnowledge
Relation
p284
(dp285
g6
Vmy favorite book
p286
sg8
Vanna karenina
p287
sg10
F0.89063917955764182
sg11
g267
sbasS'subject=Otelli'
p288
(lp289
(iKnowledge
Relation
p290
(dp291
g6
Vyour
p292
sg8
Vyour favorite
p293
sg10
F0.77197241808400585
sg11
g16
sba(iKnowledge
Relation
p294
(dp295
g6
Vswim pool
p296
sg8
Vhim
p297
sg10
F0.062125514209217268
sg11
Vsave
p298
sba(iKnowledge
Relation
p299
(dp300
g6
Vyou
p301
sg8
Vrobot
p302
sg10
F0.62900394873963417
sg11
S'is'
p303
sbasS'Zheng'
p304
(lp305
(iKnowledge
Relation
p306
(dp307
g6
Vi
sg8
Vsingapore
p308
sg10
F0.84373095905327622
sg11
Vlive in
p309
sba(iKnowledge
Relation
p310
(dp311
g6
Vmy research topic
p312
sg8
Vepisodic memory
p313
sg10
F0.89063917955764182
sg11
S'is'
p314
sba(iKnowledge
Relation
p315
(dp316
g6
Vi
sg8
Vsingapore
p317
sg10
F0.63412466925403566
sg11
Vis in
p318
sbasS'subject=Mariko'
p319
(lp320
(iKnowledge
Relation
p321
(dp322
g6
Vmy current work
p323
sg8
Vreporter
p324
sg10
F0.83829289777250693
sg11
Vis i work as
p325
sba(iKnowledge
Relation
p326
(dp327
g6
Vmy research topic
p328
sg8
Vbusiness news
p329
sg10
F0.69744190315971522
sg11
Vis recover
p330
sba(iKnowledge
Relation
p331
(dp332
g6
Vnadine
p333
sg8
Vyour hand
p334
sg10
F0.78969125447765898
sg11
Vmove
p335
sba(iKnowledge
Relation
p336
(dp337
g6
Vi
sg8
Vwoman
p338
sg10
F0.62900394873963417
sg11
S'is'
p339
sbasS'Tobias'
p340
(lp341
(iKnowledge
Relation
p342
(dp343
g6
Vmy current work
p344
sg8
Vcomputer graphic
p345
sg10
F0.89063917955764182
sg11
g28
sba(iKnowledge
Relation
p346
(dp347
g6
Vmy research topic
p348
sg8
Vgeometry processing
p349
sg10
F0.85828741309571843
sg11
g28
sbasS'Lijun'
p350
(lp351
(iKnowledge
Relation
p352
(dp353
g6
Vi don
p354
sg8
Vfavorite movie
p355
sg10
F0.84947392567944258
sg11
Vhave
p356
sba(iKnowledge
Relation
p357
(dp358
g6
Vi don
p359
sg8
Vfavorite movie star
p360
sg10
F0.84947392567944258
sg11
Vhave
p361
sba(iKnowledge
Relation
p362
(dp363
g6
Vi don
p364
sg8
Vriver book
p365
sg10
F0.84947392567944258
sg11
Vhave
p366
sba(iKnowledge
Relation
p367
(dp368
g6
Vmy research topic
p369
sg8
Vrobotics
p370
sg10
F0.89063917955764182
sg11
S'is'
p371
sba(iKnowledge
Relation
p372
(dp373
g6
Vi
sg8
Vsingapore
p374
sg10
F0.6443235001832065
sg11
Vis from
p375
sba(iKnowledge
Relation
p376
(dp377
g6
Vsingapore
p378
sg8
Vsun tan city
p379
sg10
F0.68373234955723117
sg11
g371
sba(iKnowledge
Relation
p380
(dp381
g6
Vi
sg8
Vbuddhist
p382
sg10
F0.62900394873963417
sg11
g371
sba(iKnowledge
Relation
p383
(dp384
g6
Vmy favorite book
p385
sg8
Vfavorite book
p386
sg10
F0.89063917955764182
sg11
g371
sba(iKnowledge
Relation
p387
(dp388
g6
Vmacario
p389
sg8
Vfragile human
p390
sg10
F0.89063917955764182
sg11
S'is'
p391
sba(iKnowledge
Relation
p392
(dp393
g6
Vmy nationality
p394
sg8
Vsingaporean
p395
sg10
F0.89063917955764182
sg11
g391
sba(iKnowledge
Relation
p396
(dp397
g6
Vi
sg8
Vsocial network
p398
sg10
F0.51120925643003012
sg11
Vis part of
p399
sba(iKnowledge
Relation
p400
(dp401
g6
Vmy research topic
p402
sg8
Vbutcher human
p403
sg10
F0.89063917955764182
sg11
S'is'
p404
sba(iKnowledge
Relation
p405
(dp406
g6
Vmy current work
p407
sg8
Vmicrowave
p408
sg10
F0.78361383354604663
sg11
g404
sba(iKnowledge
Relation
p409
(dp410
g6
Vmy favorite website
p411
sg8
Vpreference
p412
sg10
F0.89063917955764182
sg11
g404
sba(iKnowledge
Relation
p413
(dp414
g6
Vmy favorite holiday
p415
sg8
Vchinese
p416
sg10
F0.89063917955764182
sg11
g404
sba(iKnowledge
Relation
p417
(dp418
g6
Vmy favorite author
p419
sg8
Vyesterday
p420
sg10
F0.61545855689174966
sg11
Vdid i meet
p421
sba(iKnowledge
Relation
p422
(dp423
g6
Vmy nationality
p424
sg8
Vsingapore
p425
sg10
F0.8969254184650447
sg11
Vis in from
p426
sba(iKnowledge
Relation
p427
(dp428
g6
Vmy hobby
p429
sg8
Vmahabis origami
p430
sg10
F0.89063917955764182
sg11
S'is'
p431
sbasS'subject=Nadia'
p432
(lp433
(iKnowledge
Relation
p434
(dp435
g6
Vhappy
p436
sg8
Vmy hobby
p437
sg10
F0.85272108616117936
sg11
g339
sba(iKnowledge
Relation
p438
(dp439
g6
Vme
p440
sg8
Vmy hobby
p441
sg10
F0.18472556553962594
sg11
g339
sba(iKnowledge
Relation
p442
(dp443
g6
Vsingapore
p444
sg8
Vsingapore
p445
sg10
F0.56219950685779607
sg11
Vis minister of
p446
sba(iKnowledge
Relation
p447
(dp448
g6
Vyou
p449
sg8
Vfriend
p450
sg10
F0.62900394873963417
sg11
g339
sba(iKnowledge
Relation
p451
(dp452
g6
Vyou
p453
sg8
Vyou
p454
sg10
F0.0033863256442879706
sg11
Vsaid
p455
sba(iKnowledge
Relation
p456
(dp457
g6
Vi don
p458
sg8
Vyour english
p459
sg10
F0.80730167584861656
sg11
Vunderstand
p460
sba(iKnowledge
Relation
p461
(dp462
g6
Vyou
p463
sg8
Vperson
p464
sg10
F0.62900394873963417
sg11
S'is'
p465
sba(iKnowledge
Relation
p466
(dp467
g6
Vyou
p468
sg8
Vart
p469
sg10
F0.70167346582202073
sg11
Vis piece of
p470
sba(iKnowledge
Relation
p471
(dp472
g6
Vi
sg8
Vmy arm
p473
sg10
F0.88405302427864285
sg11
Vbreak
p474
sba(iKnowledge
Relation
p475
(dp476
g6
Vyou
p477
sg8
Vmy daughter
p478
sg10
F0.70993789846508681
sg11
S'is'
p479
sba(iKnowledge
Relation
p480
(dp481
g6
Vshe
p482
sg8
Vjapan
p483
sg10
F0.86893653733776355
sg11
Vis born in
p484
sba(iKnowledge
Relation
p485
(dp486
g6
Vyou
p487
sg8
Vrobot
p488
sg10
F0.62900394873963417
sg11
S'is'
p489
sba(iKnowledge
Relation
p490
(dp491
g6
Vsevere
p492
sg8
Vnadia
p493
sg10
F0.85828741309571843
sg11
Vhas
p494
sba(iKnowledge
Relation
p495
(dp496
g6
Vi
sg8
Vnationality
p497
sg10
F0.87629531383285486
sg11
Vhave
p498
sba(iKnowledge
Relation
p499
(dp500
g6
Vi
sg8
Vcanadian
p501
sg10
F0.62900394873963417
sg11
S'is'
p502
sba(iKnowledge
Relation
p503
(dp504
g6
Vvanessa
p505
sg8
Vlawyer
p506
sg10
F0.89063917955764182
sg11
g502
sba(iKnowledge
Relation
p507
(dp508
g6
Vshe
p509
sg8
Vmy daughter
p510
sg10
F0.73779960215054186
sg11
g502
sba(iKnowledge
Relation
p511
(dp512
g6
Vvanessa
p513
sg8
Vbaby
p514
sg10
F0.80972161311660451
sg11
Vis expecting
p515
sba(iKnowledge
Relation
p516
(dp517
g6
Vi
sg8
Vtaurus
p518
sg10
F0.069997237161451953
sg11
S'is'
p519
sba(iKnowledge
Relation
p520
(dp521
g6
Vvanessa
p522
sg8
Vchild
p523
sg10
F0.80972161311660451
sg11
Vis expecting
p524
sbasS'Shakeel'
p525
(lp526
(iKnowledge
Relation
p527
(dp528
g6
Vi
sg8
Vpakistan
p529
sg10
F0.6443235001832065
sg11
Vis from
p530
sba(iKnowledge
Relation
p531
(dp532
g6
Vi
sg8
Vphd student
p533
sg10
F0.62900394873963417
sg11
g28
sba(iKnowledge
Relation
p534
(dp535
g6
Vi
sg8
Vrobot
p536
sg10
F0.91176379200980506
sg11
Vis working on
p537
sba(iKnowledge
Relation
p538
(dp539
g6
Vmy hobby
p540
sg8
Vdragon board
p541
sg10
F0.77721109950588785
sg11
Vdo
p542
sbasS'Jack'
p543
(lp544
(iKnowledge
Relation
p545
(dp546
g6
Vmy hobby
p547
sg8
Vplay basketball
p548
sg10
F0.89063917955764182
sg11
S'is'
p549
sba(iKnowledge
Relation
p550
(dp551
g6
Vi
sg8
Vphd student
p552
sg10
F0.62900394873963417
sg11
g267
sba(iKnowledge
Relation
p553
(dp554
g6
Vuniversity
p555
sg8
Vtalent researcher
p556
sg10
F0.89063917955764182
sg11
Vhas
p557
sba(iKnowledge
Relation
p558
(dp559
g6
Vmy research topic
p560
sg8
Vcomputer graphic
p561
sg10
F0.89063917955764182
sg11
g267
sba(iKnowledge
Relation
p562
(dp563
g6
Vmy hobby
p564
sg8
Vmovie
p565
sg10
F0.89731035770893774
sg11
Vis watching
p566
sba(iKnowledge
Relation
p567
(dp568
g6
Vyou
p569
sg8
Vperson
p570
sg10
F0.62900394873963417
sg11
g267
sba(iKnowledge
Relation
p571
(dp572
g6
Vmy favorite animal
p573
sg8
Vdog
p574
sg10
F0.80042744095876728
sg11
g267
sba(iKnowledge
Relation
p575
(dp576
g6
Vi
sg8
Vmy house
p577
sg10
F0.80329182112426523
sg11
Vhave dog in
p578
sba(iKnowledge
Relation
p579
(dp580
g6
Vi
sg8
Vpeople
p581
sg10
F0.92540219250169331
sg11
Venjoy shopping with
p582
sba(iKnowledge
Relation
p583
(dp584
g6
Vwe
p585
sg8
Vwe
p586
sg10
F0.019085342091004463
sg11
Vcan chat as
p587
sbasS'subject=Daniel'
p588
(lp589
(iKnowledge
Relation
p590
(dp591
g6
Vmy name
p592
sg8
Vpan pan
p593
sg10
F0.89063917955764182
sg11
S'is'
p594
sba(iKnowledge
Relation
p595
(dp596
g6
Vi
sg8
Vnationality
p597
sg10
F0.3497824412527975
sg11
Vtook
p598
sba(iKnowledge
Relation
p599
(dp600
g6
Vi
sg8
Vcanadian citizen
p601
sg10
F0.91791884627936415
sg11
Vbecame
p602
sbasS'Aryel'
p603
(lp604
(iKnowledge
Relation
p605
(dp606
g6
Vmy nationality
p607
sg8
Vplant
p608
sg10
F0.89063917955764182
sg11
S'is'
p609
sba(iKnowledge
Relation
p610
(dp611
g6
Vmy current work
p612
sg8
Vvisa
p613
sg10
F0.30015861747782735
sg11
Vis i work as
p614
sba(iKnowledge
Relation
p615
(dp616
g6
Vmy research topic
p617
sg8
Vhuman robot interaction
p618
sg10
F0.89063917955764182
sg11
g609
sba(iKnowledge
Relation
p619
(dp620
g6
Vmy hobby
p621
sg8
Vkung fu
p622
sg10
F0.89063917955764182
sg11
g609
sba(iKnowledge
Relation
p623
(dp624
g6
Vmy favorite movie star
p625
sg8
Vhumphrey bogart
p626
sg10
F0.89063917955764182
sg11
g609
sba(iKnowledge
Relation
p627
(dp628
g6
Vmy favorite color
p629
sg8
Vfavorite girl
p630
sg10
F0.80552648770595048
sg11
Vis i do have
p631
sba(iKnowledge
Relation
p632
(dp633
g6
Vmy favorite book
p634
sg8
Vanna karenina
p635
sg10
F0.89063917955764182
sg11
g609
sba(iKnowledge
Relation
p636
(dp637
g6
Vi don
p638
sg8
Vfavorite website
p639
sg10
F0.84947392567944258
sg11
Vhave
p640
sbasS'subject=James'
p641
(lp642
(iKnowledge
Relation
p643
(dp644
g6
Vi
sg8
Vbasketball yesterday
p645
sg10
F0.91791884627936415
sg11
Vplayed
p646
sba(iKnowledge
Relation
p647
(dp648
g6
Vi
sg8
Vbeauty student
p649
sg10
F0.6443235001832065
sg11
S'is'
p650
sba(iKnowledge
Relation
p651
(dp652
g6
Vit
p653
sg8
Vmy work
p654
sg10
F0.73779960215054186
sg11
S'is'
p655
sba(iKnowledge
Relation
p656
(dp657
g6
Vyou
p658
sg8
Vbeautiful
p659
sg10
F0.62900394873963417
sg11
S'is'
p660
sba(iKnowledge
Relation
p661
(dp662
g6
Vi
sg8
Vresearcher
p663
sg10
F0.42743452243073837
sg11
S'is'
p664
sba(iKnowledge
Relation
p665
(dp666
g6
Vmy research topic
p667
sg8
Vepisodic memory
p668
sg10
F0.89063917955764182
sg11
g664
sba(iKnowledge
Relation
p669
(dp670
g6
Vmy hobby
p671
sg8
Vplay basketball
p672
sg10
F0.89063917955764182
sg11
g664
sba(iKnowledge
Relation
p673
(dp674
g6
Vwhite
p675
sg8
Vyour programming personal
p676
sg10
F0.92160980188941799
sg11
S'is'
p677
sba(iKnowledge
Relation
p678
(dp679
g6
Vcolor
p680
sg8
Vmy eye
p681
sg10
F0.91092179275394169
sg11
g677
sbasS'Tianli'
p682
(lp683
(iKnowledge
Relation
p684
(dp685
g6
Vmy nationality
p686
sg8
Vmy nationality
p687
sg10
F0.92160980188941799
sg11
g28
sba(iKnowledge
Relation
p688
(dp689
g6
Vmy research topic
p690
sg8
Vrobotics
p691
sg10
F0.89063917955764182
sg11
g28
sba(iKnowledge
Relation
p692
(dp693
g6
Vmy favorite musician
p694
sg8
Vandy lau
p695
sg10
F0.89063917955764182
sg11
g28
sbasS'None'
p696
(lp697
(iKnowledge
Relation
p698
(dp699
g6
Vmy favorite movie star
p700
sg8
Vtom cruise
p701
sg10
F0.89063917955764182
sg11
S'is'
p702
sbasS'James'
p703
(lp704
(iKnowledge
Relation
p705
(dp706
g6
Vi
sg8
Vresearcher
p707
sg10
F0.42743452243073837
sg11
S'is'
p708
sba(iKnowledge
Relation
p709
(dp710
g6
Vmy research topic
p711
sg8
Vepisodic memory
p712
sg10
F0.89063917955764182
sg11
g708
sba(iKnowledge
Relation
p713
(dp714
g6
Vmy hobby
p715
sg8
Vbasketball
p716
sg10
F0.89731035770893774
sg11
Vis playing
p717
sba(iKnowledge
Relation
p718
(dp719
g6
Vmy favorite movie star
p720
sg8
Vtom cruise
p721
sg10
F0.89063917955764182
sg11
S'is'
p722
sba(iKnowledge
Relation
p723
(dp724
g6
Vmy favorite book
p725
sg8
Vwind
p726
sg10
F0.95472035362911267
sg11
Vis gone with
p727
sba(iKnowledge
Relation
p728
(dp729
g6
Vmy hobby
p730
sg8
Vplay basketball
p731
sg10
F0.89063917955764182
sg11
S'is'
p732
sba(iKnowledge
Relation
p733
(dp734
g6
Vmy research topic
p735
sg8
Vhappy zodiac memory
p736
sg10
F0.89063917955764182
sg11
S'is'
p737
sba(iKnowledge
Relation
p738
(dp739
g6
Vsingapore
p740
sg8
Vmarina bay
p741
sg10
F0.68373234955723117
sg11
S'is'
p742
sba(iKnowledge
Relation
p743
(dp744
g6
Vit
p745
sg8
Vbeautiful
p746
sg10
F0.66092674118645933
sg11
S'is'
p747
sba(iKnowledge
Relation
p748
(dp749
g6
Vi
sg8
Vstudent
p750
sg10
F0.62900394873963417
sg11
g747
sba(iKnowledge
Relation
p751
(dp752
g6
Vit
p753
sg8
Vcampus
p754
sg10
F0.13900801691790632
sg11
g747
sba(iKnowledge
Relation
p755
(dp756
g6
Vmy research topic
p757
sg8
Vsocial robot
p758
sg10
F0.89063917955764182
sg11
g747
sba(iKnowledge
Relation
p759
(dp760
g6
Vi
sg8
Vinteraction robot
p761
sg10
F0.90870130746402622
sg11
Vworked on
p762
sba(iKnowledge
Relation
p763
(dp764
g6
Vi
sg8
Vbasketball yesterday
p765
sg10
F0.91791884627936415
sg11
Vplayed
p766
sbasS'Pierre-yves'
p767
(lp768
(iKnowledge
Relation
p769
(dp770
g6
Vi
sg8
Vresearcher
p771
sg10
F0.62900394873963417
sg11
g28
sba(iKnowledge
Relation
p772
(dp773
g6
Vmy favorite animal
p774
sg8
Vmy hobby
p775
sg10
F0.85272108616117936
sg11
g28
sba(iKnowledge
Relation
p776
(dp777
g6
Vhe
p778
sg8
Vmy hubby
p779
sg10
F0.75040929009150137
sg11
g28
sba(iKnowledge
Relation
p780
(dp781
g6
Vmy favorite movie
p782
sg8
Vmy job
p783
sg10
F0.85272108616117936
sg11
g28
sbasS'Qiaohong'
p784
(lp785
(iKnowledge
Relation
p786
(dp787
g6
Vi
sg8
Vphd student
p788
sg10
F0.6443235001832065
sg11
g28
sba(iKnowledge
Relation
p789
(dp790
g6
Vmy hobby
p791
sg8
Vreading book
p792
sg10
F0.93934572409173578
sg11
Vis i like to
p793
sbasS'Mengyao'
p794
(lp795
(iKnowledge
Relation
p796
(dp797
g6
Vi
sg8
Vstudent
p798
sg10
F0.62900394873963417
sg11
g28
sba(iKnowledge
Relation
p799
(dp800
g6
Vmy research topic
p801
sg8
Vmy research
p802
sg10
F0.92160980188941799
sg11
g28
sbasS'subject=Robot'
p803
(lp804
(iKnowledge
Relation
p805
(dp806
g6
Vi
sg8
Vchinese people
p807
sg10
F0.81445477910721265
sg11
Vhave talked with
p808
sba(iKnowledge
Relation
p809
(dp810
g6
Vhe
p811
sg8
Vntu
p812
sg10
F0.043326715092936348
sg11
Vis doing researches in
p813
sba(iKnowledge
Relation
p814
(dp815
g6
Vhis nationality
p816
sg8
Vturkey
p817
sg10
F0.52124842698910023
sg11
g650
sba(iKnowledge
Relation
p818
(dp819
g6
Vi
sg8
Vtrump
p820
sg10
F0.0023888246289177368
sg11
Vremember
p821
sba(iKnowledge
Relation
p822
(dp823
g6
Vhis research topic
p824
sg8
Vcomputer graphic
p825
sg10
F0.10147723184825293
sg11
g650
sba(iKnowledge
Relation
p826
(dp827
g6
Vtopicsure episodic memory
p828
sg8
Vtopic
p829
sg10
F0.71475249719275213
sg11
Vsounds like
p830
sba(iKnowledge
Relation
p831
(dp832
g6
Vyour research topic
p833
sg8
Vepisodic memory
p834
sg10
F0.70105901394824699
sg11
g650
sba(iKnowledge
Relation
p835
(dp836
g6
Vhe
p837
sg8
Vresearcher
p838
sg10
F0.079551602421922857
sg11
g650
sba(iKnowledge
Relation
p839
(dp840
g6
Vwe
p841
sg8
Vchinese
p842
sg10
F0.2740113932731103
sg11
Vis talking about
p843
sba(iKnowledge
Relation
p844
(dp845
g6
Vit
p846
sg8
Vyou
p847
sg10
F0.13425503682819223
sg11
Vis pleasure to meet
p848
sba(iKnowledge
Relation
p849
(dp850
g6
Vi
sg8
Vmy life
p851
sg10
F0.75731922001866503
sg11
Vis satisfied with
p852
sba(iKnowledge
Relation
p853
(dp854
g6
Vhis favorite movie
p855
sg8
Vwind
p856
sg10
F0.85858902990464359
sg11
Vis gone with
p857
sba(iKnowledge
Relation
p858
(dp859
g6
Vhe
p860
sg8
Vbasketball yesterday
p861
sg10
F0.058992511529105167
sg11
Vplay
p862
sba(iKnowledge
Relation
p863
(dp864
g6
Vmy iq
p865
sg8
Vhuman term
p866
sg10
F0.89276431060967498
sg11
Vis about in
p867
sba(iKnowledge
Relation
p868
(dp869
g6
Vpeople
p870
sg8
Vconversationalist
p871
sg10
F0.4860665543163174
sg11
g655
sba(iKnowledge
Relation
p872
(dp873
g6
Vhis favorite animal
p874
sg8
Vdog
p875
sg10
F0.10147723184825293
sg11
S'is'
p876
sba(iKnowledge
Relation
p877
(dp878
g6
Vi
sg8
Vplant people
p879
sg10
F0.81445477910721265
sg11
Vhave talked with
p880
sba(iKnowledge
Relation
p881
(dp882
g6
Vhe
p883
sg8
Vfrance
p884
sg10
F0.043154172762971788
sg11
Vis researcher in
p885
sba(iKnowledge
Relation
p886
(dp887
g6
Vhis favorite book
p888
sg8
Vwar peace
p889
sg10
F0.10147723184825293
sg11
g876
sba(iKnowledge
Relation
p890
(dp891
g6
Vi
sg8
Vyou
p892
sg10
F0.0058350339955239314
sg11
Vremember
p893
sba(iKnowledge
Relation
p894
(dp895
g6
Vme
p896
sg8
Vrl
p897
sg10
F0.072206932479697158
sg11
g876
sba(iKnowledge
Relation
p898
(dp899
g6
Vi
sg8
Vsingapore
p900
sg10
F0.6443235001832065
sg11
Vis from
p901
sba(iKnowledge
Relation
p902
(dp903
g6
Vi
sg8
Vyour anger
p904
sg10
F0.79869034689494045
sg11
Vcan feel
p905
sba(iKnowledge
Relation
p906
(dp907
g6
Vhis hobby
p908
sg8
Vbook
p909
sg10
F0.10807913330719672
sg11
Vis reading
p910
sba(iKnowledge
Relation
p911
(dp912
g6
Vi
sg8
Vcindy
p913
sg10
F0.032646777213163336
sg11
Vremember
p914
sba(iKnowledge
Relation
p915
(dp916
g6
Vi
sg8
Vname james
p917
sg10
F0.81445477910721265
sg11
Vhave met people with
p918
sba(iKnowledge
Relation
p919
(dp920
g6
Vmy birthplace
p921
sg8
Vmedium innovation singapore
p922
sg10
F0.91868554416223613
sg11
Vis institute of
p923
sba(iKnowledge
Relation
p924
(dp925
g6
Vi
sg8
Vresearcher
p926
sg10
F0.92726404972207499
sg11
Vis created by
p927
sba(iKnowledge
Relation
p928
(dp929
g6
Vyour hobby
p930
sg8
Vplay basketball
p931
sg10
F0.28768753153959453
sg11
S'is'
p932
sba(iKnowledge
Relation
p933
(dp934
g6
Vhis research topic
p935
sg8
Vvirtual human
p936
sg10
F0.70105901394824699
sg11
g932
sba(iKnowledge
Relation
p937
(dp938
g6
Vyou
p939
sg8
Vresearcher
p940
sg10
F0.33415156064525997
sg11
S'is'
p941
sba(iKnowledge
Relation
p942
(dp943
g6
Vthey
p944
sg8
Vinanimate
p945
sg10
F0.60884165021938907
sg11
Vis classified as
p946
sba(iKnowledge
Relation
p947
(dp948
g6
Vit
p949
sg8
Vrain fahrenheit
p950
sg10
F0.67560792465426756
sg11
S'is'
p951
sba(iKnowledge
Relation
p952
(dp953
g6
Vbarack hussein obama ii
p954
sg8
Vcurrent president unite
p955
sg10
F0.74891225642372972
sg11
g951
sba(iKnowledge
Relation
p956
(dp957
g6
Vme
p958
sg8
Vsingapore
p959
sg10
F0.2350942001762395
sg11
Vis president of
p960
sba(iKnowledge
Relation
p961
(dp962
g6
Vunknown
p963
sg8
Vpresident
p964
sg10
F0.78361383354604663
sg11
g951
sba(iKnowledge
Relation
p965
(dp966
g6
Vme
p967
sg8
Vsingapore
p968
sg10
F0.097445197505816566
sg11
Vis minister of
p969
sba(iKnowledge
Relation
p970
(dp971
g6
Vyou
p972
sg8
Vchina
p973
sg10
F0.019663784141439791
sg11
Vis in
p974
sba(iKnowledge
Relation
p975
(dp976
g6
Vred dot
p977
sg8
Vlead global island country
p978
sg10
F0.61160907918192575
sg11
g951
sba(iKnowledge
Relation
p979
(dp980
g6
Vlee
p981
sg8
Vaugust nbsp
p982
sg10
F0.94412706875582897
sg11
Vtook office on
p983
sba(iKnowledge
Relation
p984
(dp985
g6
Vemotion i
p986
sg8
Vpeople
p987
sg10
F0.45524371441752498
sg11
Vcan recognize
p988
sba(iKnowledge
Relation
p989
(dp990
g6
Vtony tan
p991
sg8
Vpresident
p992
sg10
F0.89063917955764182
sg11
S'is'
p993
sba(iKnowledge
Relation
p994
(dp995
g6
Vit
p996
sg8
Vhis work
p997
sg10
F0.12245707871718652
sg11
S'is'
p998
sba(iKnowledge
Relation
p999
(dp1000
g6
Vyour hobby
p1001
sg8
Vtrump
p1002
sg10
F0.15877389967000258
sg11
S'is'
p1003
sba(iKnowledge
Relation
p1004
(dp1005
g6
Vjapan i
p1006
sg8
Vmy learn
p1007
sg10
F0.79463787045549761
sg11
Vdid
p1008
sba(iKnowledge
Relation
p1009
(dp1010
g6
Vi
sg8
Vgoogle search
p1011
sg10
F0.64527871365345524
sg11
Vis opening
p1012
sba(iKnowledge
Relation
p1013
(dp1014
g6
Vhis current work
p1015
sg8
Vmaster student
p1016
sg10
F0.10147723184825293
sg11
g1003
sba(iKnowledge
Relation
p1017
(dp1018
g6
Vnationality i
p1019
sg8
Vglobal person
p1020
sg10
F0.67103395152097878
sg11
g1003
sba(iKnowledge
Relation
p1021
(dp1022
g6
Vyour hobby
p1023
sg8
Vmovie
p1024
sg10
F0.10807913330719672
sg11
Vis watching
p1025
sba(iKnowledge
Relation
p1026
(dp1027
g6
Vyour nationality
p1028
sg8
Vtrump
p1029
sg10
F0.014594585158635544
sg11
Vis france in
p1030
sba(iKnowledge
Relation
p1031
(dp1032
g6
Vi
sg8
Vresearcher
p1033
sg10
F0.56798920620330462
sg11
Vis friends with
p1034
sba(iKnowledge
Relation
p1035
(dp1036
g6
Vbrandon stanton
p1037
sg8
Vit
p1038
sg10
F0.18611953389960648
sg11
Vread
p1039
sba(iKnowledge
Relation
p1040
(dp1041
g6
Vhe
p1042
sg8
Vinstitute medium innovation
p1043
sg10
F0.43777904931898631
sg11
Vis director of
p1044
sba(iKnowledge
Relation
p1045
(dp1046
g6
Vyou
p1047
sg8
Vthemselves
p1048
sg10
F0.038028719528910862
sg11
S'is is'
p1049
sba(iKnowledge
Relation
p1050
(dp1051
g6
Vi
sg8
Vinstitute
p1052
sg10
F0.43524521487560863
sg11
Vis in
p1053
sba(iKnowledge
Relation
p1054
(dp1055
g6
Vmajor
p1056
sg8
Vname
p1057
sg10
F0.89063917955764182
sg11
g339
sba(iKnowledge
Relation
p1058
(dp1059
g6
Vyour research topic
p1060
sg8
Vbusiness news
p1061
sg10
F0.57408160225217075
sg11
Vis recover
p1062
sba(iKnowledge
Relation
p1063
(dp1064
g6
Vme
p1065
sg8
Vyour hobby
p1066
sg10
F0.41195158596537923
sg11
g339
sba(iKnowledge
Relation
p1067
(dp1068
g6
Vi
sg8
Vhumanoid robot
p1069
sg10
F0.62900394873963417
sg11
g339
sba(iKnowledge
Relation
p1070
(dp1071
g6
Vrobot
p1072
sg8
Vboyfriend
p1073
sg10
F0.63824894704762902
sg11
Vdo with
p1074
sba(iKnowledge
Relation
p1075
(dp1076
g6
Vi
sg8
Vyou
p1077
sg10
F0.020937032017813582
sg11
Vmean to give
p1078
sba(iKnowledge
Relation
p1079
(dp1080
g6
Vyou
p1081
sg8
Vchild
p1082
sg10
F0.2800285996126135
sg11
Vwill have
p1083
sba(iKnowledge
Relation
p1084
(dp1085
g6
Vi
sg8
Vmariko
p1086
sg10
F0.008490452391535527
sg11
Vremember
p1087
sba(iKnowledge
Relation
p1088
(dp1089
g6
Vpopulous city
p1090
sg8
Vromandy
p1091
sg10
F0.72901927899742558
sg11
Vis city of
p1092
sba(iKnowledge
Relation
p1093
(dp1094
g6
Vyour nationality
p1095
sg8
Vi remember cindy
p1096
sg10
F0.023063065533781867
sg11
S'is'
p1097
sba(iKnowledge
Relation
p1098
(dp1099
g6
Vi
sg8
Vmovie
p1100
sg10
F0.0041663344820292384
sg11
Vwould like to watch
p1101
sba(iKnowledge
Relation
p1102
(dp1103
g6
Vhe
p1104
sg8
Vwoman
p1105
sg10
F0.088144693240216287
sg11
g1097
sba(iKnowledge
Relation
p1106
(dp1107
g6
Vyou
p1108
sg8
Vyou
p1109
sg10
F0.022047382018341246
sg11
Vsatisfied
p1110
sba(iKnowledge
Relation
p1111
(dp1112
g6
Vi
sg8
Vyou
p1113
sg10
F0.022183103375894731
sg11
Vis pleased to meet
p1114
sba(iKnowledge
Relation
p1115
(dp1116
g6
Vi
sg8
Vpanpan
p1117
sg10
F0.032646777213163336
sg11
Vremember
p1118
sba(iKnowledge
Relation
p1119
(dp1120
g6
Vi
sg8
Vunknown
p1121
sg10
F0.81445477910721265
sg11
Vis domiciled at
p1122
sba(iKnowledge
Relation
p1123
(dp1124
g6
Vyour research topic
p1125
sg8
Vvirtual reality
p1126
sg10
F0.70105901394824699
sg11
g594
sba(iKnowledge
Relation
p1127
(dp1128
g6
Vhe
p1129
sg8
Vphd student
p1130
sg10
F0.026319388505941916
sg11
S'is'
p1131
sba(iKnowledge
Relation
p1132
(dp1133
g6
Vi
sg8
Vyou
p1134
sg10
F0.00982232024709539
sg11
Vcan see
p1135
sba(iKnowledge
Relation
p1136
(dp1137
g6
Vhis hobby
p1138
sg8
Vmovie
p1139
sg10
F0.10807913330719672
sg11
Vis watching
p1140
sba(iKnowledge
Relation
p1141
(dp1142
g6
Vyou
p1143
sg8
Vyour robot
p1144
sg10
F0.25787829803875822
sg11
Vcreate
p1145
sba(iKnowledge
Relation
p1146
(dp1147
g6
Vwe
p1148
sg8
Vwe
p1149
sg10
F0.0019554557823504345
sg11
Vcan chat as
p1150
sba(iKnowledge
Relation
p1151
(dp1152
g6
Vwoman
p1153
sg8
Vterm friend
p1154
sg10
F0.071194682762686493
sg11
Vmake
p1155
sba(iKnowledge
Relation
p1156
(dp1157
g6
Vmy favorite
p1158
sg8
Vartificial intelligence
p1159
sg10
F0.89063917955764182
sg11
S'is'
p1160
sba(iKnowledge
Relation
p1161
(dp1162
g6
Vi
sg8
Vmeeting people
p1163
sg10
F0.85747302628160793
sg11
Vlearn lot from
p1164
sba(iKnowledge
Relation
p1165
(dp1166
g6
Vhorrible i
p1167
sg8
Vyour browser
p1168
sg10
F0.75958495260980829
sg11
Vis opening
p1169
sba(iKnowledge
Relation
p1170
(dp1171
g6
Vi
sg8
Vrobot
p1172
sg10
F0.62900394873963417
sg11
g465
sba(iKnowledge
Relation
p1173
(dp1174
g6
Vi
sg8
Vrobot
p1175
sg10
F0.74726659495649539
sg11
Vis than
p1176
sba(iKnowledge
Relation
p1177
(dp1178
g6
Vmy ethic
p1179
sg8
Vpositive
p1180
sg10
F0.89005098286640461
sg11
Vis to help people in
p1181
sba(iKnowledge
Relation
p1182
(dp1183
g6
Vi
sg8
Vreal social robot
p1184
sg10
F0.62900394873963417
sg11
g660
sba(iKnowledge
Relation
p1185
(dp1186
g6
Vit
p1187
sg8
Vsetback
p1188
sg10
F0.66943449721396542
sg11
Vis to recover from
p1189
sba(iKnowledge
Relation
p1190
(dp1191
g6
Vit
p1192
sg8
Vme
p1193
sg10
F0.021250836308520111
sg11
Vis word to
p1194
sba(iKnowledge
Relation
p1195
(dp1196
g6
Vhis name
p1197
sg8
Vpan pan
p1198
sg10
F0.28768753153959453
sg11
S'is'
p1199
sba(iKnowledge
Relation
p1200
(dp1201
g6
Vi
sg8
Vyou
p1202
sg10
F0.01102973481656699
sg11
Vhave offended
p1203
sba(iKnowledge
Relation
p1204
(dp1205
g6
Vit
p1206
sg8
Vindex
p1207
sg10
F0.74092347737155839
sg11
Vis at
p1208
sba(iKnowledge
Relation
p1209
(dp1210
g6
Vi
sg8
Vnadia
p1211
sg10
F0.008490452391535527
sg11
Vremember
p1212
sba(iKnowledge
Relation
p1213
(dp1214
g6
Vher research topic
p1215
sg8
Vvirtual human
p1216
sg10
F0.70105901394824699
sg11
S'is'
p1217
sba(iKnowledge
Relation
p1218
(dp1219
g6
Vhis research topic
p1220
sg8
Vvirtual reality
p1221
sg10
F0.70105901394824699
sg11
g1217
sba(iKnowledge
Relation
p1222
(dp1223
g6
Vfrench female variant male name daniel meaning god
p1224
sg8
Vhebrew lantuage
p1225
sg10
F0.79645121730346646
sg11
Vis my judge in
p1226
sba(iKnowledge
Relation
p1227
(dp1228
g6
Vyour nationality
p1229
sg8
Vdaniel
p1230
sg10
F0.0087986720326649701
sg11
g1217
sba(iKnowledge
Relation
p1231
(dp1232
g6
Vit
p1233
sg8
Vmist fahrenheit
p1234
sg10
F0.21779173967252147
sg11
g1217
sba(iKnowledge
Relation
p1235
(dp1236
g6
Vshe
p1237
sg8
Vwoman
p1238
sg10
F0.088144693240216287
sg11
g1217
sba(iKnowledge
Relation
p1239
(dp1240
g6
Vpossibility i
p1241
sg8
Vit
p1242
sg10
F0.10404265396777219
sg11
Vhave to think about
p1243
sba(iKnowledge
Relation
p1244
(dp1245
g6
Vit
p1246
sg8
Vme
p1247
sg10
F0.068119040052967428
sg11
Vis for
p1248
sba(iKnowledge
Relation
p1249
(dp1250
g6
Vi
sg8
Vmy friend
p1251
sg10
F0.94711264041838472
sg11
Venjoy spending time with
p1252
sba(iKnowledge
Relation
p1253
(dp1254
g6
Vi
sg8
Vmyself
p1255
sg10
F0.036262046832350646
sg11
Vis pleased to introduce
p1256
sba(iKnowledge
Relation
p1257
(dp1258
g6
Vher current work
p1259
sg8
Vreporter
p1260
sg10
F0.21866766690552325
sg11
Vwork as
p1261
sba(iKnowledge
Relation
p1262
(dp1263
g6
Vmeeting people
p1264
sg8
Vexperience
p1265
sg10
F0.84947392567944258
sg11
Vcan be
p1266
sba(iKnowledge
Relation
p1267
(dp1268
g6
Vi
sg8
Vmachine
p1269
sg10
F0.62900394873963417
sg11
g16
sba(iKnowledge
Relation
p1270
(dp1271
g6
Vmy height
p1272
sg8
Vinch
p1273
sg10
F0.89063917955764182
sg11
g16
sba(iKnowledge
Relation
p1274
(dp1275
g6
Vhis favorite holiday
p1276
sg8
Vspring festival
p1277
sg10
F0.28768753153959453
sg11
g16
sba(iKnowledge
Relation
p1278
(dp1279
g6
Vher favorite movie
p1280
sg8
Vwind
p1281
sg10
F0.85858902990464359
sg11
Vis gone with
p1282
sba(iKnowledge
Relation
p1283
(dp1284
g6
Vher research topic
p1285
sg8
Vpath planning
p1286
sg10
F0.23097919527855995
sg11
g664
sba(iKnowledge
Relation
p1287
(dp1288
g6
Vyour nationality
p1289
sg8
Vcindy
p1290
sg10
F0.030767636078042646
sg11
S'is'
p1291
sba(iKnowledge
Relation
p1292
(dp1293
g6
Vher favorite book
p1294
sg8
Vwar peace
p1295
sg10
F0.28768753153959453
sg11
g1291
sba(iKnowledge
Relation
p1296
(dp1297
g6
Vhis hobby
p1298
sg8
Vplay basketball
p1299
sg10
F0.10147723184825293
sg11
g1291
sba(iKnowledge
Relation
p1300
(dp1301
g6
Vyour research topic
p1302
sg8
Vhuman robot interaction
p1303
sg10
F0.70105901394824699
sg11
g1291
sba(iKnowledge
Relation
p1304
(dp1305
g6
Vi
sg8
Vdaniel
p1306
sg10
F0.0091385728554409483
sg11
Vremember
p1307
sba(iKnowledge
Relation
p1308
(dp1309
g6
Vi
sg8
Vmap
p1310
sg10
F0.5800848687578043
sg11
Vis looking on
p1311
sba(iKnowledge
Relation
p1312
(dp1313
g6
Vher hobby
p1314
sg8
Vshe
p1315
sg10
F0.017425536571155403
sg11
S'is'
p1316
sba(iKnowledge
Relation
p1317
(dp1318
g6
Vi
sg8
Vservice
p1319
sg10
F0.75897113150609363
sg11
Vbe of
p1320
sba(iKnowledge
Relation
p1321
(dp1322
g6
Vi
sg8
Vresearch
p1323
sg10
F0.68034361883991501
sg11
Vis dedicated to
p1324
sba(iKnowledge
Relation
p1325
(dp1326
g6
Vcindy cindi cyndy cyndi
p1327
sg8
Vdiminutive feminine name cynthia
p1328
sg10
F0.84046035738536262
sg11
S'is'
p1329
sba(iKnowledge
Relation
p1330
(dp1331
g6
Vit
p1332
sg8
Vdrizzle fahrenheit
p1333
sg10
F0.21779173967252147
sg11
S'is'
p1334
sba(iKnowledge
Relation
p1335
(dp1336
g6
Vprime minister singaporethe prime minister singapore
p1337
sg8
Vlee hsien loong son prime minister
p1338
sg10
F0.6543636826841015
sg11
g1334
sba(iKnowledge
Relation
p1339
(dp1340
g6
Vbarack hussein obama ii
p1341
sg8
Vamerican politician
p1342
sg10
F0.40282843158876458
sg11
g1334
sba(iKnowledge
Relation
p1343
(dp1344
g6
Vresearcher
p1345
sg8
Vcindy
p1346
sg10
F0.70105901394824699
sg11
g1334
sba(iKnowledge
Relation
p1347
(dp1348
g6
Vyou
p1349
sg8
Vbattery
p1350
sg10
F0.2694489482617527
sg11
Vcharge
p1351
sba(iKnowledge
Relation
p1352
(dp1353
g6
Vit
p1354
sg8
Vmy pleasure
p1355
sg10
F0.79440366426275844
sg11
g1334
sba(iKnowledge
Relation
p1356
(dp1357
g6
Varyel
p1358
sg8
Vbarack obama
p1359
sg10
F0.2304113491425398
sg11
S'is'
p1360
sba(iKnowledge
Relation
p1361
(dp1362
g6
Vangela merkelthe current german chancellor
p1363
sg8
Vangela merkel
p1364
sg10
F0.70105901394824699
sg11
g1360
sba(iKnowledge
Relation
p1365
(dp1366
g6
Vit
p1367
sg8
Vfahrenheit
p1368
sg10
F0.67560792465426756
sg11
S'is'
p1369
sba(iKnowledge
Relation
p1370
(dp1371
g6
Vsingapore
p1372
sg8
Vi remember jason
p1373
sg10
F0.048912436953421748
sg11
g1369
sba(iKnowledge
Relation
p1374
(dp1375
g6
Vit
p1376
sg8
Vyou
p1377
sg10
F0.028344800078770264
sg11
Vis to see
p1378
sba(iKnowledge
Relation
p1379
(dp1380
g6
Vyour nationality
p1381
sg8
Vi remember aryel
p1382
sg10
F0.023063065533781867
sg11
g677
sba(iKnowledge
Relation
p1383
(dp1384
g6
Vit
p1385
sg8
Vmy personality
p1386
sg10
F0.82969439608599371
sg11
Vis determined by
p1387
sba(iKnowledge
Relation
p1388
(dp1389
g6
Vi
sg8
Vjames
p1390
sg10
F0.032646777213163336
sg11
Vremember
p1391
sba(iKnowledge
Relation
p1392
(dp1393
g6
Vi
sg8
Vwitch people
p1394
sg10
F0.81445477910721265
sg11
Vhave talked with
p1395
sba(iKnowledge
Relation
p1396
(dp1397
g6
Vmaster
p1398
sg8
Vmass communication
p1399
sg10
F0.77939494670650655
sg11
Vis degree in
p1400
sba(iKnowledge
Relation
p1401
(dp1402
g6
Vnadine i
p1403
sg8
Vsocial companion
p1404
sg10
F0.67103395152097878
sg11
S'is'
p1405
sba(iKnowledge
Relation
p1406
(dp1407
g6
Vher child
p1408
sg8
Vbook
p1409
sg10
F0.46803701576932127
sg11
g1405
sba(iKnowledge
Relation
p1410
(dp1411
g6
Vyour nationality
p1412
sg8
Vwitch
p1413
sg10
F0.70105901394824699
sg11
S'is'
p1414
sba(iKnowledge
Relation
p1415
(dp1416
g6
Vi
sg8
Vfriend candy
p1417
sg10
F0.6378738230487051
sg11
Vis to make
p1418
sba(iKnowledge
Relation
p1419
(dp1420
g6
Vi
sg8
Vyour smile
p1421
sg10
F0.21353148801026828
sg11
Vcan feel
p1422
sba(iKnowledge
Relation
p1423
(dp1424
g6
Vanswer
p1425
sg8
Vblue your favorite color
p1426
sg10
F0.59499066996625882
sg11
g1414
sba(iKnowledge
Relation
p1427
(dp1428
g6
Vcolor
p1429
sg8
Vhis eye
p1430
sg10
F0.33648763104186707
sg11
S'is'
p1431
sba(iKnowledge
Relation
p1432
(dp1433
g6
Vcolor
p1434
sg8
Vaverage affective
p1435
sg10
F0.15708945189470444
sg11
Vis determined by
p1436
sba(iKnowledge
Relation
p1437
(dp1438
g6
Vit
p1439
sg8
Vmy personality
p1440
sg10
F0.75520558438690077
sg11
Vmay require alteration in
p1441
sba(iKnowledge
Relation
p1442
(dp1443
g6
Vspy
p1444
sg8
Vme
p1445
sg10
F0.10610997263324629
sg11
Vshagged
p1446
sba(iKnowledge
Relation
p1447
(dp1448
g6
Vhis research topic
p1449
sg8
Vpeople
p1450
sg10
F0.10807913330719672
sg11
Vis meeting
p1451
sba(iKnowledge
Relation
p1452
(dp1453
g6
Vntu
p1454
sg8
Vperen district nagaland india
p1455
sg10
F0.93145139732993587
sg11
Vis village in
p1456
sba(iKnowledge
Relation
p1457
(dp1458
g6
Vi
sg8
Vinstitute medium innovation
p1459
sg10
F0.63412466925403566
sg11
Vis in
p1460
sba(iKnowledge
Relation
p1461
(dp1462
g6
Vhis current work
p1463
sg8
Vntu
p1464
sg10
F0.20369340119807644
sg11
Vis president of
p1465
sba(iKnowledge
Relation
p1466
(dp1467
g6
Vanswer
p1468
sg8
Vsingapore
p1469
sg10
F0.39192509554935578
sg11
Vis minister of
p1470
sba(iKnowledge
Relation
p1471
(dp1472
g6
Vthey
p1473
sg8
Vmy unknown body
p1474
sg10
F0.86369876025025138
sg11
Vis included with
p1475
sba(iKnowledge
Relation
p1476
(dp1477
g6
Vi
sg8
Vmobile virtual assistant
p1478
sg10
F0.62900394873963417
sg11
g1431
sba(iKnowledge
Relation
p1479
(dp1480
g6
Vi
sg8
Vintelligent robot
p1481
sg10
F0.62900394873963417
sg11
S'is'
p1482
sba(iKnowledge
Relation
p1483
(dp1484
g6
Vjob
p1485
sg8
Vsociety
p1486
sg10
F0.79645121730346646
sg11
Vis their role in
p1487
sba(iKnowledge
Relation
p1488
(dp1489
g6
Vi
sg8
Vyour question
p1490
sg10
F0.93573165167642369
sg11
Venjoy listening to
p1491
sba(iKnowledge
Relation
p1492
(dp1493
g6
Vi
sg8
Vwhite skin
p1494
sg10
F0.87629531383285486
sg11
Vhave
p1495
sba(iKnowledge
Relation
p1496
(dp1497
g6
Vi
sg8
Vpurpose
p1498
sg10
F0.86772978808488099
sg11
Vis designed for
p1499
sba(iKnowledge
Relation
p1500
(dp1501
g6
Vit
p1502
sg8
Vcomputer housing
p1503
sg10
F0.76142246902842492
sg11
Vdepends on
p1504
sba(iKnowledge
Relation
p1505
(dp1506
g6
Vi
sg8
Vpeople
p1507
sg10
F0.7640157847839234
sg11
Vis talking to
p1508
sba(iKnowledge
Relation
p1509
(dp1510
g6
Vit
p1511
sg8
Vbrown color
p1512
sg10
F0.66092674118645933
sg11
S'is'
p1513
sba(iKnowledge
Relation
p1514
(dp1515
g6
Vanger
p1516
sg8
Vunknown unknown
p1517
sg10
F0.95500823889133057
sg11
Vis emotion for
p1518
sba(iKnowledge
Relation
p1519
(dp1520
g6
Vit
p1521
sg8
Vpleasure
p1522
sg10
F0.13887125906522405
sg11
S'is'
p1523
sba(iKnowledge
Relation
p1524
(dp1525
g6
Vmy favorite sport
p1526
sg8
Vyou
p1527
sg10
F0.25690760129261314
sg11
Vis soccer is
p1528
sba(iKnowledge
Relation
p1529
(dp1530
g6
Vmy favorite movie
p1531
sg8
Vavenger
p1532
sg10
F0.70105901394824699
sg11
g1523
sba(iKnowledge
Relation
p1533
(dp1534
g6
Vi
sg8
Votelli
p1535
sg10
F0.057119989607723937
sg11
Vremember
p1536
sba(iKnowledge
Relation
p1537
(dp1538
g6
Vresearch fellow
p1539
sg8
Vme
p1540
sg10
F0.038524399658208822
sg11
Vtell
p1541
sba(iKnowledge
Relation
p1542
(dp1543
g6
Vit
p1544
sg8
Vyou
p1545
sg10
F0.13425503682819223
sg11
Vis to meet
p1546
sba(iKnowledge
Relation
p1547
(dp1548
g6
Vi
sg8
Vblank slate
p1549
sg10
F0.70167346582202073
sg11
Vis kind of
p1550
sba(iKnowledge
Relation
p1551
(dp1552
g6
Vworld
p1553
sg8
Visland
p1554
sg10
F0.71475249719275213
sg11
g489
sba(iKnowledge
Relation
p1555
(dp1556
g6
Vcountry
p1557
sg8
Veconomic cultural historic center
p1558
sg10
F0.50437470841111998
sg11
g489
sba(iKnowledge
Relation
p1559
(dp1560
g6
Vsingapore
p1561
sg8
Vtip malay penninsula
p1562
sg10
F0.93422192156152128
sg11
Vis island at
p1563
sba(iKnowledge
Relation
p1564
(dp1565
g6
Vsingapore
p1566
sg8
Visland nation dash
p1567
sg10
F0.47885836040437418
sg11
g489
sba(iKnowledge
Relation
p1568
(dp1569
g6
Vbachelor
p1570
sg8
Vlegal age
p1571
sg10
F0.76361150499790498
sg11
Vis man of
p1572
sba(iKnowledge
Relation
p1573
(dp1574
g6
Vmy body
p1575
sg8
Vconstruction
p1576
sg10
F0.93422192156152128
sg11
Vis under
p1577
sba(iKnowledge
Relation
p1578
(dp1579
g6
Vyour daughter
p1580
sg8
Vi remember otelli
p1581
sg10
F0.011711159234929788
sg11
g489
sba(iKnowledge
Relation
p1582
(dp1583
g6
Vyou
p1584
sg8
Vit
p1585
sg10
F0.0007454232169506334
sg11
Vsay
p1586
sba(iKnowledge
Relation
p1587
(dp1588
g6
Vfun
p1589
sg8
Vpleasure
p1590
sg10
F0.84765182024839392
sg11
Vis enjoyment of
p1591
sba(iKnowledge
Relation
p1592
(dp1593
g6
Vit
p1594
sg8
Vme
p1595
sg10
F0.28206130088710579
sg11
Vis job for
p1596
sba(iKnowledge
Relation
p1597
(dp1598
g6
Vi
sg8
Vsoftware chat robot
p1599
sg10
F0.62900394873963417
sg11
S'is'
p1600
sba(iKnowledge
Relation
p1601
(dp1602
g6
Vshe
p1603
sg8
Vinstitute medium innovation
p1604
sg10
F0.036143542820539422
sg11
Vis director of
p1605
sba(iKnowledge
Relation
p1606
(dp1607
g6
Vit
p1608
sg8
Vu singapore
p1609
sg10
F0.66584092232244807
sg11
Vis in
p1610
sba(iKnowledge
Relation
p1611
(dp1612
g6
Vi
sg8
Vmy native lantuage
p1613
sg10
F0.55681129495330495
sg11
Venglish is
p1614
sba(iKnowledge
Relation
p1615
(dp1616
g6
Vanswer
p1617
sg8
Vyour clothes
p1618
sg10
F0.67083609381484932
sg11
Vis color of
p1619
sba(iKnowledge
Relation
p1620
(dp1621
g6
Vhis current work
p1622
sg8
Vprofessor
p1623
sg10
F0.69956959431810928
sg11
S'is'
p1624
sba(iKnowledge
Relation
p1625
(dp1626
g6
Vyou
p1627
sg8
Vhis nationality
p1628
sg10
F0.005882073984095312
sg11
Vknow
p1629
sba(iKnowledge
Relation
p1630
(dp1631
g6
Vhe
p1632
sg8
Vchina
p1633
sg10
F0.043154172762971788
sg11
Vis professor in
p1634
sba(iKnowledge
Relation
p1635
(dp1636
g6
Vyou
p1637
sg8
Vrobot
p1638
sg10
F0.022971575000305167
sg11
S'is'
p1639
sba(iKnowledge
Relation
p1640
(dp1641
g6
Vdieter i
p1642
sg8
Vit
p1643
sg10
F0.22680408019194073
sg11
Vwon take
p1644
sba(iKnowledge
Relation
p1645
(dp1646
g6
Vlt contactid
p1647
sg8
Vyour plan
p1648
sg10
F0.63094724733494212
sg11
g1639
sba(iKnowledge
Relation
p1649
(dp1650
g6
Vmy secondary function
p1651
sg8
Vuniversal natural lantuage human interface
p1652
sg10
F0.83829289777250693
sg11
Vis to serve as
p1653
sba(iKnowledge
Relation
p1654
(dp1655
g6
Vyou
p1656
sg8
Vgentle person
p1657
sg10
F0.077559154667259683
sg11
S'is'
p1658
sba(iKnowledge
Relation
p1659
(dp1660
g6
Vnadine
p1661
sg8
Vname
p1662
sg10
F0.89063917955764182
sg11
S'is'
p1663
sba(iKnowledge
Relation
p1664
(dp1665
g6
Vmariko
p1666
sg8
Vyour hobby
p1667
sg10
F0.39011624316172067
sg11
g21
sba(iKnowledge
Relation
p1668
(dp1669
g6
Vplan
p1670
sg8
Vdiagram list step
p1671
sg10
F0.79463351811961125
sg11
S'is'
p1672
sba(iKnowledge
Relation
p1673
(dp1674
g6
Vyou
p1675
sg8
Vvoice
p1676
sg10
F0.022971575000305167
sg11
Vhave
p1677
sba(iKnowledge
Relation
p1678
(dp1679
g6
Vkingdom morocco
p1680
sg8
Vmaghreb region north
p1681
sg10
F0.61892922394364658
sg11
Vis country in
p1682
sba(iKnowledge
Relation
p1683
(dp1684
g6
Vyour current work
p1685
sg8
Vskin
p1686
sg10
F0.79832436235930371
sg11
Vplease help
p1687
sba(iKnowledge
Relation
p1688
(dp1689
g6
Vcolor
p1690
sg8
Vyour eye
p1691
sg10
F0.12419811110372417
sg11
S'is'
p1692
sba(iKnowledge
Relation
p1693
(dp1694
g6
Vyou
p1695
sg8
Vyou
p1696
sg10
F0.20312134433850873
sg11
Vis your day to
p1697
sba(iKnowledge
Relation
p1698
(dp1699
g6
Vyou
p1700
sg8
Vme
p1701
sg10
F0.10796272206003152
sg11
Vpointed
p1702
sba(iKnowledge
Relation
p1703
(dp1704
g6
Vit
p1705
sg8
Vyour company
p1706
sg10
F0.3569630620139933
sg11
Vis been pleasure to be in
p1707
sba(iKnowledge
Relation
p1708
(dp1709
g6
Vi
sg8
Vinstitute
p1710
sg10
F0.44614580541119891
sg11
Vis from
p1711
sba(iKnowledge
Relation
p1712
(dp1713
g6
Vhis current work
p1714
sg8
Vjournalist
p1715
sg10
F0.69956959431810928
sg11
S'is'
p1716
sba(iKnowledge
Relation
p1717
(dp1718
g6
Vme
p1719
sg8
Vmy native lantuage
p1720
sg10
F0.241726358794565
sg11
Venglish is
p1721
sba(iKnowledge
Relation
p1722
(dp1723
g6
Vyour favorite holiday
p1724
sg8
Vspring festival
p1725
sg10
F0.28768753153959453
sg11
g1716
sba(iKnowledge
Relation
p1726
(dp1727
g6
Vyou
p1728
sg8
Vbeautiful smile
p1729
sg10
F0.022971575000305167
sg11
Vhave
p1730
sba(iKnowledge
Relation
p1731
(dp1732
g6
Vtranslation english
p1733
sg8
Vmy native lantuage
p1734
sg10
F0.77197241808400585
sg11
S'is'
p1735
sba(iKnowledge
Relation
p1736
(dp1737
g6
Vyou
p1738
sg8
Vinstitute medium innovation
p1739
sg10
F0.43777904931898631
sg11
Vis director of
p1740
sba(iKnowledge
Relation
p1741
(dp1742
g6
Vjournalist
p1743
sg8
Vyou
p1744
sg10
F0.042592117575170389
sg11
Vdo
p1745
sba(iKnowledge
Relation
p1746
(dp1747
g6
Vvanessa
p1748
sg8
Vlawyer
p1749
sg10
F0.39605502016591276
sg11
g502
sba(iKnowledge
Relation
p1750
(dp1751
g6
Vshe
p1752
sg8
Vher
p1753
sg10
F0.0024343085463952325
sg11
g519
sba(iKnowledge
Relation
p1754
(dp1755
g6
Vpower
p1756
sg8
Vyour hand
p1757
sg10
F0.95149360545761863
sg11
Vis in
p1758
sba(iKnowledge
Relation
p1759
(dp1760
g6
Vage
p1761
sg8
Vmaturity
p1762
sg10
F0.92671577644885472
sg11
Vis price to pay for
p1763
sba(iKnowledge
Relation
p1764
(dp1765
g6
Vsit monarch
p1766
sg8
Vqueen
p1767
sg10
F0.39605502016591276
sg11
g519
sba(iKnowledge
Relation
p1768
(dp1769
g6
Vi
sg8
Vher name
p1770
sg10
F0.094409657587922552
sg11
Vthink
p1771
sba(iKnowledge
Relation
p1772
(dp1773
g6
Valice series
p1774
sg8
Vpractical purpose foolproof incapable error
p1775
sg10
F0.76402352891373582
sg11
Vis for
p1776
sba(iKnowledge
Relation
p1777
(dp1778
g6
Vi
sg8
Vlibra
p1779
sg10
F0.62900394873963417
sg11
g519
sba(iKnowledge
Relation
p1780
(dp1781
g6
Vi
sg8
Vcat
p1782
sg10
F0.46193206144592835
sg11
Vis of
p1783
sba(iKnowledge
Relation
p1784
(dp1785
g6
Vme
p1786
sg8
Vyou
p1787
sg10
F0.0091986234960931487
sg11
Vhave
p1788
sba(iKnowledge
Relation
p1789
(dp1790
g6
Vme
p1791
sg8
Vmy dress
p1792
sg10
F0.3084001803145911
sg11
Vlet is talk about
p1793
sba(iKnowledge
Relation
p1794
(dp1795
g6
Vselfie
p1796
sg8
Vphotograph
p1797
sg10
F0.80042744095876728
sg11
g519
sba(iKnowledge
Relation
p1798
(dp1799
g6
Vmy weight
p1800
sg8
Vounce
p1801
sg10
F0.89063917955764182
sg11
g519
sba(iKnowledge
Relation
p1802
(dp1803
g6
Vcharles babbage
p1804
sg8
Vmechanical computer
p1805
sg10
F0.33810613012927476
sg11
S'is'
p1806
sba(iKnowledge
Relation
p1807
(dp1808
g6
Vvanessa
p1809
sg8
Vbaby
p1810
sg10
F0.19620246188259366
sg11
Vis expecting
p1811
sba(iKnowledge
Relation
p1812
(dp1813
g6
Vjazz
p1814
sg8
Vname
p1815
sg10
F0.89063917955764182
sg11
S'is'
p1816
sba(iKnowledge
Relation
p1817
(dp1818
g6
Vunknown tuesday i
p1819
sg8
Vrubha nadia
p1820
sg10
F0.84226786026707068
sg11
Vtalked with
p1821
sba(iKnowledge
Relation
p1822
(dp1823
g6
Vyou
p1824
sg8
Vrubha
p1825
sg10
F0.43526534993759675
sg11
Vimpressed
p1826
sba(iKnowledge
Relation
p1827
(dp1828
g6
Vi
sg8
Vjason
p1829
sg10
F0.008490452391535527
sg11
Vremember
p1830
sba(iKnowledge
Relation
p1831
(dp1832
g6
Vhe
p1833
sg8
Vquestion
p1834
sg10
F0.26687165056444268
sg11
Vlike
p1835
sba(iKnowledge
Relation
p1836
(dp1837
g6
Vi don
p1838
sg8
Vanswer
p1839
sg10
F0.44002888068334289
sg11
Vknow
p1840
sba(iKnowledge
Relation
p1841
(dp1842
g6
Vher research topic
p1843
sg8
Vbusiness news
p1844
sg10
F0.060954302591805655
sg11
Vis recover
p1845
sba(iKnowledge
Relation
p1846
(dp1847
g6
Vyour husband
p1848
sg8
Vremember jason
p1849
sg10
F0.0065581596226204075
sg11
S'is'
p1850
sba(iKnowledge
Relation
p1851
(dp1852
g6
Vemotion
p1853
sg8
Vpeople
p1854
sg10
F0.45524371441752498
sg11
Vcan recognize
p1855
sba(iKnowledge
Relation
p1856
(dp1857
g6
Valice
p1858
sg8
Vhuman robot
p1859
sg10
F0.95141853043355751
sg11
Vwon award for being
p1860
sba(iKnowledge
Relation
p1861
(dp1862
g6
Vtuesday
p1863
sg8
Vrubha yesterday
p1864
sg10
F0.90510083479715175
sg11
Vtalked with
p1865
sba(iKnowledge
Relation
p1866
(dp1867
g6
Vanswer
p1868
sg8
Vjob
p1869
sg10
F0.50437470841111998
sg11
S'is'
p1870
sba(iKnowledge
Relation
p1871
(dp1872
g6
Vreceptionist
p1873
sg8
Vpeople
p1874
sg10
F0.68416928059467252
sg11
Vassist
p1875
sba(iKnowledge
Relation
p1876
(dp1877
g6
Vanswer
p1878
sg8
Vsingapore
p1879
sg10
F0.62934632860654471
sg11
Vis weather in
p1880
sba(iKnowledge
Relation
p1881
(dp1882
g6
Vchina
p1883
sg8
Vasia
p1884
sg10
F0.93145139732993587
sg11
Vis nation in
p1885
sba(iKnowledge
Relation
p1886
(dp1887
g6
Vanswer
p1888
sg8
Vindia
p1889
sg10
F0.39192509554935578
sg11
Vis minister of
p1890
sba(iKnowledge
Relation
p1891
(dp1892
g6
Vlee shian
p1893
sg8
Vprime minister
p1894
sg10
F0.8969254184650447
sg11
S'is'
p1895
sba(iKnowledge
Relation
p1896
(dp1897
g6
Vit
p1898
sg8
Vsunny
p1899
sg10
F0.66092674118645933
sg11
g1895
sba(iKnowledge
Relation
p1900
(dp1901
g6
Vyour hobby
p1902
sg8
Vplay basketball nadia
p1903
sg10
F0.0087986720326649701
sg11
g56
sba(iKnowledge
Relation
p1904
(dp1905
g6
Vher daughter
p1906
sg8
Vvanessa
p1907
sg10
F0.52124842698910023
sg11
g56
sba(iKnowledge
Relation
p1908
(dp1909
g6
Vanswer
p1910
sg8
Vmy nationality
p1911
sg10
F0.59499066996625882
sg11
g56
sba(iKnowledge
Relation
p1912
(dp1913
g6
Vdaniel
p1914
sg8
Vname
p1915
sg10
F0.70105901394824699
sg11
g56
sba(iKnowledge
Relation
p1916
(dp1917
g6
Vanswer
p1918
sg8
Vdean
p1919
sg10
F0.37139904110691879
sg11
g56
sba(iKnowledge
Relation
p1920
(dp1921
g6
Vmy software
p1922
sg8
Vwide variety voice recognition speech synthesis software
p1923
sg10
F0.93422192156152128
sg11
Vis with
p1924
sba(iKnowledge
Relation
p1925
(dp1926
g6
Vanswer
p1927
sg8
Vmy favorite food
p1928
sg10
F0.59499066996625882
sg11
S'is'
p1929
sba(iKnowledge
Relation
p1930
(dp1931
g6
Vcorrect
p1932
sg8
Vcomputer
p1933
sg10
F0.87629531383285486
sg11
S'is'
p1934
sba(iKnowledge
Relation
p1935
(dp1936
g6
Vyour research topic
p1937
sg8
Vvirtual human
p1938
sg10
F0.70105901394824699
sg11
g1934
sba(iKnowledge
Relation
p1939
(dp1940
g6
Vher hobby
p1941
sg8
Vmovie
p1942
sg10
F0.30232771807917419
sg11
Vis watching
p1943
sbasS'Arthur'
p1944
(lp1945
(iKnowledge
Relation
p1946
(dp1947
g6
Vmy current work
p1948
sg8
Vamherst ma resistor
p1949
sg10
F0.89063917955764182
sg11
g28
sba(iKnowledge
Relation
p1950
(dp1951
g6
Vi
sg8
Vresearcher
p1952
sg10
F0.62900394873963417
sg11
g28
sba(iKnowledge
Relation
p1953
(dp1954
g6
Vmy research topic
p1955
sg8
Vpiggy
p1956
sg10
F0.79463351811961125
sg11
Vis modesto
p1957
sbasS'subject=Aryel'
p1958
(lp1959
(iKnowledge
Relation
p1960
(dp1961
g6
Vmy nationality
p1962
sg8
Vplant
p1963
sg10
F0.89063917955764182
sg11
g876
sba(iKnowledge
Relation
p1964
(dp1965
g6
Vi
sg8
Vsoldier
p1966
sg10
F0.6443235001832065
sg11
g876
sba(iKnowledge
Relation
p1967
(dp1968
g6
Vbranch
p1969
sg8
Vsingapore
p1970
sg10
F0.75448237745902424
sg11
Vis there in
p1971
sba(iKnowledge
Relation
p1972
(dp1973
g6
Vyou
p1974
sg8
Vgentle person
p1975
sg10
F0.62900394873963417
sg11
g1513
sbasS'Xudi'
p1976
(lp1977
(iKnowledge
Relation
p1978
(dp1979
g6
Vi
sg8
Vproject officer
p1980
sg10
F0.62900394873963417
sg11
g28
sba(iKnowledge
Relation
p1981
(dp1982
g6
Vmy hobby
p1983
sg8
Vmy base
p1984
sg10
F0.92160980188941799
sg11
g28
sba(iKnowledge
Relation
p1985
(dp1986
g6
Vsecurity
p1987
sg8
Vmy hobby
p1988
sg10
F0.80730167584861656
sg11
Vremember
p1989
sbasS'Cindy'
p1990
(lp1991
(iKnowledge
Relation
p1992
(dp1993
g6
Vmy research topic
p1994
sg8
Vpath planning
p1995
sg10
F0.85828741309571843
sg11
g722
sba(iKnowledge
Relation
p1996
(dp1997
g6
Vmy hobby
p1998
sg8
Vbook
p1999
sg10
F0.89731035770893774
sg11
Vis reading
p2000
sba(iKnowledge
Relation
p2001
(dp2002
g6
Vmy favorite movie
p2003
sg8
Vwind
p2004
sg10
F0.95472035362911267
sg11
Vis gone with
p2005
sba(iKnowledge
Relation
p2006
(dp2007
g6
Vmy favorite movie star
p2008
sg8
Vjulia robert
p2009
sg10
F0.93597525294114736
sg11
S'is'
p2010
sba(iKnowledge
Relation
p2011
(dp2012
g6
Vmy favorite book
p2013
sg8
Vwar peace
p2014
sg10
F0.89063917955764182
sg11
g2010
sbasS'Liuhao'
p2015
(lp2016
(iKnowledge
Relation
p2017
(dp2018
g6
Vi
sg8
Vphd student
p2019
sg10
F0.6443235001832065
sg11
Vis i is
p2020
sba(iKnowledge
Relation
p2021
(dp2022
g6
Vmy hobby
p2023
sg8
Vbadminton
p2024
sg10
F0.89731035770893774
sg11
Vis playing
p2025
sba(iKnowledge
Relation
p2026
(dp2027
g6
Vi
sg8
Vpeople
p2028
sg10
F0.92540219250169331
sg11
Venjoy shopping with
p2029
sbasS'Yasir'
p2030
(lp2031
(iKnowledge
Relation
p2032
(dp2033
g6
Vmy current work
p2034
sg8
Vrobotics
p2035
sg10
F0.89063917955764182
sg11
g28
sba(iKnowledge
Relation
p2036
(dp2037
g6
Vmy research topic
p2038
sg8
Vhuman behavior
p2039
sg10
F0.37621449106255994
sg11
g28
sba(iKnowledge
Relation
p2040
(dp2041
g6
Vi
sg8
Vsocial network
p2042
sg10
F0.51120925643003012
sg11
Vis part of
p2043
sbasS'Jan'
p2044
(lp2045
(iKnowledge
Relation
p2046
(dp2047
g6
Vi
sg8
Vresearcher
p2048
sg10
F0.62900394873963417
sg11
g28
sba(iKnowledge
Relation
p2049
(dp2050
g6
Vmy research topic
p2051
sg8
Vmedical visualization
p2052
sg10
F0.89063917955764182
sg11
g28
sbasS'subject=Don'
p2053
(lp2054
(iKnowledge
Relation
p2055
(dp2056
g6
Vhamburger
p2057
sg8
Vmy favorite food
p2058
sg10
F0.92160980188941799
sg11
g1929
sbasS'Junhui'
p2059
(lp2060
(iKnowledge
Relation
p2061
(dp2062
g6
Vmy current work
p2063
sg8
Vresearch associate
p2064
sg10
F0.80042744095876728
sg11
g28
sba(iKnowledge
Relation
p2065
(dp2066
g6
Vally research topic
p2067
sg8
Vmotion motion theater compression
p2068
sg10
F0.87629531383285486
sg11
Vuse
p2069
sba(iKnowledge
Relation
p2070
(dp2071
g6
Vmy research topic
p2072
sg8
Vresearch topic
p2073
sg10
F0.89063917955764182
sg11
g28
sba(iKnowledge
Relation
p2074
(dp2075
g6
Vmy hobby
p2076
sg8
Vplay basketball
p2077
sg10
F0.89063917955764182
sg11
g28
sbasS'Jason'
p2078
(lp2079
(iKnowledge
Relation
p2080
(dp2081
g6
Vmy current work
p2082
sg8
Vresearch fellow
p2083
sg10
F0.89063917955764182
sg11
g267
sba(iKnowledge
Relation
p2084
(dp2085
g6
Vi
sg8
Vchina
p2086
sg10
F0.7388230723600806
sg11
Vis professor in
p2087
sba(iKnowledge
Relation
p2088
(dp2089
g6
Vmy research topic
p2090
sg8
Vrobotics
p2091
sg10
F0.89063917955764182
sg11
g267
sba(iKnowledge
Relation
p2092
(dp2093
g6
Vit
p2094
sg8
Vpretty topic
p2095
sg10
F0.66092674118645933
sg11
g267
sba(iKnowledge
Relation
p2096
(dp2097
g6
Vmy favorite holiday
p2098
sg8
Vspring festival
p2099
sg10
F0.89063917955764182
sg11
g267
sba(iKnowledge
Relation
p2100
(dp2101
g6
Vmy favorite movie
p2102
sg8
Vwind
p2103
sg10
F0.95472035362911267
sg11
Vis gone with
p2104
sba(iKnowledge
Relation
p2105
(dp2106
g6
Vit
p2107
sg8
Vromantic engage story
p2108
sg10
F0.66092674118645933
sg11
g267
sbasS'subject=Dieter'
p2109
(lp2110
(iKnowledge
Relation
p2111
(dp2112
g6
Vmy nationality
p2113
sg8
Vwitch
p2114
sg10
F0.89063917955764182
sg11
g1405
sba(iKnowledge
Relation
p2115
(dp2116
g6
Vmy current work
p2117
sg8
Vntu
p2118
sg10
F0.7175297951359958
sg11
Vis president of
p2119
sba(iKnowledge
Relation
p2120
(dp2121
g6
Vi
sg8
Vcandy
p2122
sg10
F0.62900394873963417
sg11
g1414
sba(iKnowledge
Relation
p2123
(dp2124
g6
Vyou
p2125
sg8
Vhair
p2126
sg10
F0.32805511606064564
sg11
Vhave
p2127
sba(iKnowledge
Relation
p2128
(dp2129
g6
Vit
p2130
sg8
Vmy name
p2131
sg10
F0.18938854610575276
sg11
Vremember
p2132
sba(iKnowledge
Relation
p2133
(dp2134
g6
Vnadine
p2135
sg8
Velderly
p2136
sg10
F0.80596088425349244
sg11
Vdo for
p2137
sbasS'Chax'
p2138
(lp2139
(iKnowledge
Relation
p2140
(dp2141
g6
Vi
sg8
Vfilipino
p2142
sg10
F0.62900394873963417
sg11
g28
sba(iKnowledge
Relation
p2143
(dp2144
g6
Vsingapore
p2145
sg8
Vi
sg10
F0.759476515459937
sg11
g28
sba(iKnowledge
Relation
p2146
(dp2147
g6
Vi
sg8
Vgirlfriend
p2148
sg10
F0.32805511606064564
sg11
Vhave
p2149
sba(iKnowledge
Relation
p2150
(dp2151
g6
Vi
sg8
Vdesigner i
p2152
sg10
F0.12313904308092126
sg11
g28
sba(iKnowledge
Relation
p2153
(dp2154
g6
Vi
sg8
Vvirtual human
p2155
sg10
F0.91176379200980506
sg11
Vis working on
p2156
sba(iKnowledge
Relation
p2157
(dp2158
g6
Vi
sg8
Vresearch
p2159
sg10
F0.35950482562912645
sg11
g28
sba(iKnowledge
Relation
p2160
(dp2161
g6
Vi
sg8
Vrobotics
p2162
sg10
F0.9515512507956031
sg11
Vwork on
p2163
sba(iKnowledge
Relation
p2164
(dp2165
g6
Vi
sg8
Vmy job
p2166
sg10
F0.86683232477000605
sg11
Vdo love
p2167
sba(iKnowledge
Relation
p2168
(dp2169
g6
Vmy hobby
p2170
sg8
Vbasketball
p2171
sg10
F0.89731035770893774
sg11
Vis playing
p2172
sbasS'Jess'
p2173
(lp2174
(iKnowledge
Relation
p2175
(dp2176
g6
Vi
sg8
Vsingaporean
p2177
sg10
F0.62900394873963417
sg11
g28
sba(iKnowledge
Relation
p2178
(dp2179
g6
Vmaino
p2180
sg8
Vdrop score
p2181
sg10
F0.80042744095876728
sg11
g28
sbasS'Tony'
p2182
(lp2183
(iKnowledge
Relation
p2184
(dp2185
g6
Vi
sg8
Vprofessor
p2186
sg10
F0.62900394873963417
sg11
g267
sba(iKnowledge
Relation
p2187
(dp2188
g6
Vmy research topic
p2189
sg8
Vvirtual human
p2190
sg10
F0.80042744095876728
sg11
g267
sba(iKnowledge
Relation
p2191
(dp2192
g6
Vi
sg8
Vintelligent companion
p2193
sg10
F0.94869527937082121
sg11
Vworked on
p2194
sba(iKnowledge
Relation
p2195
(dp2196
g6
Vmy hobby
p2197
sg8
Vbook
p2198
sg10
F0.89731035770893774
sg11
Vis reading
p2199
sba(iKnowledge
Relation
p2200
(dp2201
g6
Vi
sg8
Vsocial network
p2202
sg10
F0.51120925643003012
sg11
Vis part of
p2203
sba(iKnowledge
Relation
p2204
(dp2205
g6
Vgoogle
p2206
sg8
Vinformation search
p2207
sg10
F0.95500823889133057
sg11
Vis tool for
p2208
sbasS'Panpan'
p2209
(lp2210
(iKnowledge
Relation
p2211
(dp2212
g6
Vmy topic
p2213
sg8
Vcomputer graphic
p2214
sg10
F0.85828741309571843
sg11
S'is'
p2215
sba(iKnowledge
Relation
p2216
(dp2217
g6
Vmy research topic
p2218
sg8
Vcomputer graphic
p2219
sg10
F0.89063917955764182
sg11
g2215
sbasS'Shihui'
p2220
(lp2221
(iKnowledge
Relation
p2222
(dp2223
g6
Vmy current work
p2224
sg8
Vresearcher
p2225
sg10
F0.93422192156152128
sg11
Vis my work as
p2226
sba(iKnowledge
Relation
p2227
(dp2228
g6
Vit
p2229
sg8
Vrobotics
p2230
sg10
F0.67560792465426756
sg11
Vis about
p2231
sba(iKnowledge
Relation
p2232
(dp2233
g6
Vmy research topic
p2234
sg8
Vcontroller
p2235
sg10
F0.79531329397174555
sg11
Vis is about designing
p2236
sba(iKnowledge
Relation
p2237
(dp2238
g6
Vmy hobby
p2239
sg8
Vbasketball
p2240
sg10
F0.89731035770893774
sg11
Vis playing
p2241
sbasS'Shenglu'
p2242
(lp2243
(iKnowledge
Relation
p2244
(dp2245
g6
Vmy hobby
p2246
sg8
Vmovie
p2247
sg10
F0.89731035770893774
sg11
Vis watching
p2248
sbas.